; Function Attrs: mustprogress uwtable
define void @_ZN7Imf_3_210ImageLevel6resizeERKN9Imath_3_23BoxINS1_4Vec2IiEEEE(ptr nocapture noundef nonnull writeonly align 8 dereferenceable(40) %this, ptr nocapture noundef nonnull readonly align 4 dereferenceable(16) %dataWindow) unnamed_addr #7 align 2 personality ptr @__gxx_personality_v0 {
entry:
  %_iex_throw_s = alloca %"class.std::__cxx11::basic_stringstream", align 8
  %max = getelementptr inbounds i8, ptr %dataWindow, i64 8
  %0 = load i32, ptr %max, align 4
  %1 = load i32, ptr %dataWindow, align 4
  %sub = add nsw i32 %1, -1
  %cmp = icmp slt i32 %0, %sub
  br i1 %cmp, label %do.body, label %lor.lhs.false

lor.lhs.false:                                    ; preds = %entry
  %y = getelementptr inbounds i8, ptr %dataWindow, i64 12
  %2 = load i32, ptr %y, align 4
  %y5 = getelementptr inbounds i8, ptr %dataWindow, i64 4
  %3 = load i32, ptr %y5, align 4
  %sub6 = add nsw i32 %3, -1
  %cmp7 = icmp slt i32 %2, %sub6
  br i1 %cmp7, label %do.body, label %if.end

do.body:                                          ; preds = %entry, %lor.lhs.false
  tail call void @_Z13iex_debugTrapv()
  call void @_ZNSt7__cxx1118basic_stringstreamIcSt11char_traitsIcESaIcEEC1Ev(ptr noundef nonnull align 8 dereferenceable(128) %_iex_throw_s)
  %add.ptr = getelementptr inbounds i8, ptr %_iex_throw_s, i64 16
  %call = invoke noundef nonnull align 8 dereferenceable(8) ptr @_ZStlsISt11char_traitsIcEERSt13basic_ostreamIcT_ES5_PKc(ptr noundef nonnull align 8 dereferenceable(8) %add.ptr, ptr noundef nonnull @.str)
          to label %invoke.cont unwind label %lpad

invoke.cont:                                      ; preds = %do.body
  %4 = load i32, ptr %dataWindow, align 4
  %call11 = invoke noundef nonnull align 8 dereferenceable(8) ptr @_ZNSolsEi(ptr noundef nonnull align 8 dereferenceable(8) %call, i32 noundef %4)
          to label %invoke.cont10 unwind label %lpad

invoke.cont10:                                    ; preds = %invoke.cont
  %call13 = invoke noundef nonnull align 8 dereferenceable(8) ptr @_ZStlsISt11char_traitsIcEERSt13basic_ostreamIcT_ES5_PKc(ptr noundef nonnull align 8 dereferenceable(8) %call11, ptr noundef nonnull @.str.1)
          to label %invoke.cont12 unwind label %lpad

invoke.cont12:                                    ; preds = %invoke.cont10
  %y15 = getelementptr inbounds i8, ptr %dataWindow, i64 4
  %5 = load i32, ptr %y15, align 4
  %call17 = invoke noundef nonnull align 8 dereferenceable(8) ptr @_ZNSolsEi(ptr noundef nonnull align 8 dereferenceable(8) %call13, i32 noundef %5)
          to label %invoke.cont16 unwind label %lpad

invoke.cont16:                                    ; preds = %invoke.cont12
  %call19 = invoke noundef nonnull align 8 dereferenceable(8) ptr @_ZStlsISt11char_traitsIcEERSt13basic_ostreamIcT_ES5_PKc(ptr noundef nonnull align 8 dereferenceable(8) %call17, ptr noundef nonnull @.str.2)
          to label %invoke.cont18 unwind label %lpad

invoke.cont18:                                    ; preds = %invoke.cont16
  %6 = load i32, ptr %max, align 4
  %call23 = invoke noundef nonnull align 8 dereferenceable(8) ptr @_ZNSolsEi(ptr noundef nonnull align 8 dereferenceable(8) %call19, i32 noundef %6)
          to label %invoke.cont22 unwind label %lpad

invoke.cont22:                                    ; preds = %invoke.cont18
  %call25 = invoke noundef nonnull align 8 dereferenceable(8) ptr @_ZStlsISt11char_traitsIcEERSt13basic_ostreamIcT_ES5_PKc(ptr noundef nonnull align 8 dereferenceable(8) %call23, ptr noundef nonnull @.str.1)
          to label %invoke.cont24 unwind label %lpad

invoke.cont24:                                    ; preds = %invoke.cont22
  %y27 = getelementptr inbounds i8, ptr %dataWindow, i64 12
  %7 = load i32, ptr %y27, align 4
  %call29 = invoke noundef nonnull align 8 dereferenceable(8) ptr @_ZNSolsEi(ptr noundef nonnull align 8 dereferenceable(8) %call25, i32 noundef %7)
          to label %invoke.cont28 unwind label %lpad

invoke.cont28:                                    ; preds = %invoke.cont24
  %call31 = invoke noundef nonnull align 8 dereferenceable(8) ptr @_ZStlsISt11char_traitsIcEERSt13basic_ostreamIcT_ES5_PKc(ptr noundef nonnull align 8 dereferenceable(8) %call29, ptr noundef nonnull @.str.3)
          to label %invoke.cont30 unwind label %lpad

invoke.cont30:                                    ; preds = %invoke.cont28
  %exception = call ptr @__cxa_allocate_exception(i64 72) #12
  invoke void @_ZN7Iex_3_26ArgExcC1ERNSt7__cxx1118basic_stringstreamIcSt11char_traitsIcESaIcEEE(ptr noundef nonnull align 8 dereferenceable(72) %exception, ptr noundef nonnull align 8 dereferenceable(128) %_iex_throw_s)
          to label %invoke.cont33 unwind label %lpad32

invoke.cont33:                                    ; preds = %invoke.cont30
  invoke void @__cxa_throw(ptr nonnull %exception, ptr nonnull @_ZTIN7Iex_3_26ArgExcE, ptr nonnull @_ZN7Iex_3_26ArgExcD1Ev) #13
          to label %unreachable unwind label %lpad

lpad:                                             ; preds = %invoke.cont33, %invoke.cont28, %invoke.cont24, %invoke.cont22, %invoke.cont18, %invoke.cont16, %invoke.cont12, %invoke.cont10, %invoke.cont, %do.body
  %8 = landingpad { ptr, i32 }
          cleanup
  br label %ehcleanup

lpad32:                                           ; preds = %invoke.cont30
  %9 = landingpad { ptr, i32 }
          cleanup
  call void @__cxa_free_exception(ptr %exception) #12
  br label %ehcleanup

ehcleanup:                                        ; preds = %lpad32, %lpad
  %.pn = phi { ptr, i32 } [ %8, %lpad ], [ %9, %lpad32 ]
  call void @_ZNSt7__cxx1118basic_stringstreamIcSt11char_traitsIcESaIcEED1Ev(ptr noundef nonnull align 8 dereferenceable(128) %_iex_throw_s) #12
  resume { ptr, i32 } %.pn

if.end:                                           ; preds = %lor.lhs.false
  %_dataWindow = getelementptr inbounds i8, ptr %this, i64 24
  store i32 %1, ptr %_dataWindow, align 8
  %10 = load i32, ptr %y5, align 4
  %y3.i.i = getelementptr inbounds i8, ptr %this, i64 28
  store i32 %10, ptr %y3.i.i, align 4
  %max.i = getelementptr inbounds i8, ptr %this, i64 32
  %11 = load i32, ptr %max, align 4
  store i32 %11, ptr %max.i, align 8
  %12 = load i32, ptr %y, align 4
  %y3.i3.i = getelementptr inbounds i8, ptr %this, i64 36
  store i32 %12, ptr %y3.i3.i, align 4
  ret void

unreachable:                                      ; preds = %invoke.cont33
  unreachable
}